target datalayout = "e-m:e-p270:32:32-p271:32:32-p272:64:64-i64:64-i128:128-f80:128-n8:16:32:64-S128"
target triple = "x86_64-pc-linux-gnu"

%"class.cv::details::TlsAbstractionReleaseGuard" = type { ptr }

@__dso_handle = external hidden global i8
@_ZZN2cv7detailsL17getTlsAbstractionEvE5g_tls = internal global ptr null, align 8
@_ZGVZN2cv7detailsL17getTlsAbstractionEvE5g_tls = internal global i64 0, align 8
@_ZZN2cv7detailsL17getTlsAbstractionEvE17g_tlsReleaseGuard = internal global %"class.cv::details::TlsAbstractionReleaseGuard" zeroinitializer, align 8
@_ZGVZN2cv7detailsL17getTlsAbstractionEvE17g_tlsReleaseGuard = internal global i64 0, align 8
@_ZN2cv7details14TlsAbstractionC1Ev = hidden unnamed_addr alias void (ptr), ptr @_ZN2cv7details14TlsAbstractionC2Ev

; Function Attrs: mustprogress nounwind uwtable
define linkonce_odr hidden void @_ZN2cv7details26TlsAbstractionReleaseGuardC2ERNS0_14TlsAbstractionE(ptr noundef nonnull align 8 dereferenceable(8) %0, ptr noundef nonnull align 4 dereferenceable(5) %1) unnamed_addr #5 comdat align 2 {
  %3 = alloca ptr, align 8
  %4 = alloca ptr, align 8
  store ptr %0, ptr %3, align 8, !tbaa !255
  store ptr %1, ptr %4, align 8, !tbaa !95
  %5 = load ptr, ptr %3, align 8
  %6 = getelementptr inbounds nuw %"class.cv::details::TlsAbstractionReleaseGuard", ptr %5, i32 0, i32 0
  %7 = load ptr, ptr %4, align 8, !tbaa !95
  store ptr %7, ptr %6, align 8, !tbaa !95
  ret void
}

; Function Attrs: mustprogress uwtable
define internal noundef ptr @_ZN2cv7detailsL17getTlsAbstractionEv() #4 personality ptr @__gxx_personality_v0 {
  %1 = alloca ptr, align 8
  %2 = alloca i32, align 4
  %3 = load atomic i8, ptr @_ZGVZN2cv7detailsL17getTlsAbstractionEvE5g_tls acquire, align 8
  %4 = icmp eq i8 %3, 0
  br i1 %4, label %5, label %12, !prof !72

5:                                                ; preds = %0
  %6 = call i32 @__cxa_guard_acquire(ptr @_ZGVZN2cv7detailsL17getTlsAbstractionEvE5g_tls) #3
  %7 = icmp ne i32 %6, 0
  br i1 %7, label %8, label %12

8:                                                ; preds = %5
  %9 = invoke noalias noundef nonnull ptr @_Znwm(i64 noundef 8) #28
          to label %10 unwind label %24

10:                                               ; preds = %8
  invoke void @_ZN2cv7details14TlsAbstractionC1Ev(ptr noundef nonnull align 4 dereferenceable(5) %9)
          to label %11 unwind label %28

11:                                               ; preds = %10
  store ptr %9, ptr @_ZZN2cv7detailsL17getTlsAbstractionEvE5g_tls, align 8, !tbaa !95
  call void @__cxa_guard_release(ptr @_ZGVZN2cv7detailsL17getTlsAbstractionEvE5g_tls) #3
  br label %12

12:                                               ; preds = %11, %5, %0
  %13 = load atomic i8, ptr @_ZGVZN2cv7detailsL17getTlsAbstractionEvE17g_tlsReleaseGuard acquire, align 8
  %14 = icmp eq i8 %13, 0
  br i1 %14, label %15, label %22, !prof !72

15:                                               ; preds = %12
  %16 = call i32 @__cxa_guard_acquire(ptr @_ZGVZN2cv7detailsL17getTlsAbstractionEvE17g_tlsReleaseGuard) #3
  %17 = icmp ne i32 %16, 0
  br i1 %17, label %18, label %22

18:                                               ; preds = %15
  %19 = load ptr, ptr @_ZZN2cv7detailsL17getTlsAbstractionEvE5g_tls, align 8, !tbaa !95
  invoke void @_ZN2cv7details26TlsAbstractionReleaseGuardC2ERNS0_14TlsAbstractionE(ptr noundef nonnull align 8 dereferenceable(8) @_ZZN2cv7detailsL17getTlsAbstractionEvE17g_tlsReleaseGuard, ptr noundef nonnull align 4 dereferenceable(5) %19)
          to label %20 unwind label %33

20:                                               ; preds = %18
  %21 = call i32 @__cxa_atexit(ptr @_ZN2cv7details26TlsAbstractionReleaseGuardD2Ev, ptr @_ZZN2cv7detailsL17getTlsAbstractionEvE17g_tlsReleaseGuard, ptr @__dso_handle) #3
  call void @__cxa_guard_release(ptr @_ZGVZN2cv7detailsL17getTlsAbstractionEvE17g_tlsReleaseGuard) #3
  br label %22

22:                                               ; preds = %20, %15, %12
  %23 = load ptr, ptr @_ZZN2cv7detailsL17getTlsAbstractionEvE5g_tls, align 8, !tbaa !95
  ret ptr %23

24:                                               ; preds = %8
  %25 = landingpad { ptr, i32 }
          cleanup
  %26 = extractvalue { ptr, i32 } %25, 0
  store ptr %26, ptr %1, align 8
  %27 = extractvalue { ptr, i32 } %25, 1
  store i32 %27, ptr %2, align 4
  br label %32

28:                                               ; preds = %10
  %29 = landingpad { ptr, i32 }
          cleanup
  %30 = extractvalue { ptr, i32 } %29, 0
  store ptr %30, ptr %1, align 8
  %31 = extractvalue { ptr, i32 } %29, 1
  store i32 %31, ptr %2, align 4
  call void @_ZdlPv(ptr noundef %9) #31
  br label %32

32:                                               ; preds = %28, %24
  call void @__cxa_guard_abort(ptr @_ZGVZN2cv7detailsL17getTlsAbstractionEvE5g_tls) #3
  br label %37

33:                                               ; preds = %18
  %34 = landingpad { ptr, i32 }
          cleanup
  %35 = extractvalue { ptr, i32 } %34, 0
  store ptr %35, ptr %1, align 8
  %36 = extractvalue { ptr, i32 } %34, 1
  store i32 %36, ptr %2, align 4
  call void @__cxa_guard_abort(ptr @_ZGVZN2cv7detailsL17getTlsAbstractionEvE17g_tlsReleaseGuard) #3
  br label %37

37:                                               ; preds = %33, %32
  %38 = load ptr, ptr %1, align 8
  %39 = load i32, ptr %2, align 4
  %40 = insertvalue { ptr, i32 } poison, ptr %38, 0
  %41 = insertvalue { ptr, i32 } %40, i32 %39, 1
  resume { ptr, i32 } %41
}