; Function Attrs: mustprogress uwtable
define internal fastcc noundef ptr @_ZN2cv7detailsL17getTlsAbstractionEv() unnamed_addr #3 personality ptr @__gxx_personality_v0 {
  %1 = load atomic i8, ptr @_ZGVZN2cv7detailsL17getTlsAbstractionEvE5g_tls acquire, align 8
  %2 = icmp eq i8 %1, 0
  br i1 %2, label %3, label %9, !prof !95

3:                                                ; preds = %0
  %4 = tail call i32 @__cxa_guard_acquire(ptr nonnull @_ZGVZN2cv7detailsL17getTlsAbstractionEvE5g_tls) #34
  %.not = icmp eq i32 %4, 0
  br i1 %.not, label %9, label %5

5:                                                ; preds = %3
  %6 = invoke noalias noundef nonnull dereferenceable(8) ptr @_Znwm(i64 noundef 8) #49
          to label %7 unwind label %19

7:                                                ; preds = %5
  invoke void @_ZN2cv7details14TlsAbstractionC2Ev(ptr noundef nonnull align 4 dereferenceable(5) %6)
          to label %8 unwind label %21

8:                                                ; preds = %7
  store ptr %6, ptr @_ZZN2cv7detailsL17getTlsAbstractionEvE5g_tls, align 8, !tbaa !226
  tail call void @__cxa_guard_release(ptr nonnull @_ZGVZN2cv7detailsL17getTlsAbstractionEvE5g_tls) #34
  br label %9

9:                                                ; preds = %8, %3, %0
  %10 = load atomic i8, ptr @_ZGVZN2cv7detailsL17getTlsAbstractionEvE17g_tlsReleaseGuard acquire, align 8
  %11 = icmp eq i8 %10, 0
  br i1 %11, label %12, label %17, !prof !95

12:                                               ; preds = %9
  %13 = tail call i32 @__cxa_guard_acquire(ptr nonnull @_ZGVZN2cv7detailsL17getTlsAbstractionEvE17g_tlsReleaseGuard) #34
  %.not3 = icmp eq i32 %13, 0
  br i1 %.not3, label %17, label %14

14:                                               ; preds = %12
  %15 = load ptr, ptr @_ZZN2cv7detailsL17getTlsAbstractionEvE5g_tls, align 8, !tbaa !226
  store ptr %15, ptr @_ZZN2cv7detailsL17getTlsAbstractionEvE17g_tlsReleaseGuard, align 8, !tbaa !226
  %16 = tail call i32 @__cxa_atexit(ptr nonnull @_ZN2cv7details26TlsAbstractionReleaseGuardD2Ev, ptr nonnull @_ZZN2cv7detailsL17getTlsAbstractionEvE17g_tlsReleaseGuard, ptr nonnull @__dso_handle) #34
  tail call void @__cxa_guard_release(ptr nonnull @_ZGVZN2cv7detailsL17getTlsAbstractionEvE17g_tlsReleaseGuard) #34
  br label %17

17:                                               ; preds = %14, %12, %9
  %18 = load ptr, ptr @_ZZN2cv7detailsL17getTlsAbstractionEvE5g_tls, align 8, !tbaa !226
  ret ptr %18

19:                                               ; preds = %5
  %20 = landingpad { ptr, i32 }
          cleanup
  br label %23

21:                                               ; preds = %7
  %22 = landingpad { ptr, i32 }
          cleanup
  tail call void @_ZdlPv(ptr noundef nonnull %6) #51
  br label %23

23:                                               ; preds = %21, %19
  %.pn = phi { ptr, i32 } [ %22, %21 ], [ %20, %19 ]
  tail call void @__cxa_guard_abort(ptr nonnull @_ZGVZN2cv7detailsL17getTlsAbstractionEvE5g_tls) #34
  resume { ptr, i32 } %.pn
}